target datalayout = "e-m:e-p270:32:32-p271:32:32-p272:64:64-i64:64-i128:128-f80:128-n8:16:32:64-S128"
target triple = "x86_64-pc-linux-gnu"

%"struct.Luau::BytecodeBuilder::ConstantKey" = type { i32, i64, i64 }

; Function Attrs: mustprogress nounwind uwtable
define dso_local noundef i64 @_ZNK4Luau15BytecodeBuilder15ConstantKeyHashclERKNS0_11ConstantKeyE(ptr noundef nonnull align 1 dereferenceable(1) %0, ptr noundef nonnull align 8 dereferenceable(24) %1) #0 align 2 {
  %3 = alloca i64, align 8
  %4 = alloca ptr, align 8
  %5 = alloca ptr, align 8
  %6 = alloca [4 x i32], align 16
  %7 = alloca i32, align 4
  %8 = alloca i32, align 4
  %9 = alloca i32, align 4
  %10 = alloca i32, align 4
  store ptr %0, ptr %4, align 8, !tbaa !21
  store ptr %1, ptr %5, align 8, !tbaa !23
  %11 = load ptr, ptr %5, align 8, !tbaa !23
  %12 = getelementptr inbounds nuw %"struct.Luau::BytecodeBuilder::ConstantKey", ptr %11, i32 0, i32 0
  %13 = load i32, ptr %12, align 8, !tbaa !25
  %14 = icmp eq i32 %13, 3
  br i1 %14, label %15, label %60

15:                                               ; preds = %2
  call void @llvm.lifetime.start.p0(i64 16, ptr %6) #19
  %16 = getelementptr inbounds [4 x i32], ptr %6, i64 0, i64 0
  %17 = load ptr, ptr %5, align 8, !tbaa !23
  %18 = getelementptr inbounds nuw %"struct.Luau::BytecodeBuilder::ConstantKey", ptr %17, i32 0, i32 1
  call void @llvm.memcpy.p0.p0.i64(ptr align 16 %16, ptr align 8 %18, i64 16, i1 false)
  %19 = getelementptr inbounds [4 x i32], ptr %6, i64 0, i64 0
  %20 = load i32, ptr %19, align 16, !tbaa !28
  %21 = lshr i32 %20, 17
  %22 = getelementptr inbounds [4 x i32], ptr %6, i64 0, i64 0
  %23 = load i32, ptr %22, align 16, !tbaa !28
  %24 = xor i32 %23, %21
  store i32 %24, ptr %22, align 16, !tbaa !28
  %25 = getelementptr inbounds [4 x i32], ptr %6, i64 0, i64 1
  %26 = load i32, ptr %25, align 4, !tbaa !28
  %27 = lshr i32 %26, 17
  %28 = getelementptr inbounds [4 x i32], ptr %6, i64 0, i64 1
  %29 = load i32, ptr %28, align 4, !tbaa !28
  %30 = xor i32 %29, %27
  store i32 %30, ptr %28, align 4, !tbaa !28
  %31 = getelementptr inbounds [4 x i32], ptr %6, i64 0, i64 2
  %32 = load i32, ptr %31, align 8, !tbaa !28
  %33 = lshr i32 %32, 17
  %34 = getelementptr inbounds [4 x i32], ptr %6, i64 0, i64 2
  %35 = load i32, ptr %34, align 8, !tbaa !28
  %36 = xor i32 %35, %33
  store i32 %36, ptr %34, align 8, !tbaa !28
  %37 = getelementptr inbounds [4 x i32], ptr %6, i64 0, i64 3
  %38 = load i32, ptr %37, align 4, !tbaa !28
  %39 = lshr i32 %38, 17
  %40 = getelementptr inbounds [4 x i32], ptr %6, i64 0, i64 3
  %41 = load i32, ptr %40, align 4, !tbaa !28
  %42 = xor i32 %41, %39
  store i32 %42, ptr %40, align 4, !tbaa !28
  call void @llvm.lifetime.start.p0(i64 4, ptr %7) #19
  %43 = getelementptr inbounds [4 x i32], ptr %6, i64 0, i64 0
  %44 = load i32, ptr %43, align 16, !tbaa !28
  %45 = mul i32 %44, 73856093
  %46 = getelementptr inbounds [4 x i32], ptr %6, i64 0, i64 1
  %47 = load i32, ptr %46, align 4, !tbaa !28
  %48 = mul i32 %47, 19349663
  %49 = xor i32 %45, %48
  %50 = getelementptr inbounds [4 x i32], ptr %6, i64 0, i64 2
  %51 = load i32, ptr %50, align 8, !tbaa !28
  %52 = mul i32 %51, 83492791
  %53 = xor i32 %49, %52
  %54 = getelementptr inbounds [4 x i32], ptr %6, i64 0, i64 3
  %55 = load i32, ptr %54, align 4, !tbaa !28
  %56 = mul i32 %55, 39916801
  %57 = xor i32 %53, %56
  store i32 %57, ptr %7, align 4, !tbaa !28
  %58 = load i32, ptr %7, align 4, !tbaa !28
  %59 = zext i32 %58 to i64
  store i64 %59, ptr %3, align 8
  call void @llvm.lifetime.end.p0(i64 4, ptr %7) #19
  call void @llvm.lifetime.end.p0(i64 16, ptr %6) #19
  br label %101

60:                                               ; preds = %2
  call void @llvm.lifetime.start.p0(i64 4, ptr %8) #19
  store i32 1540483477, ptr %8, align 4, !tbaa !28
  call void @llvm.lifetime.start.p0(i64 4, ptr %9) #19
  %61 = load ptr, ptr %5, align 8, !tbaa !23
  %62 = getelementptr inbounds nuw %"struct.Luau::BytecodeBuilder::ConstantKey", ptr %61, i32 0, i32 1
  %63 = load i64, ptr %62, align 8, !tbaa !29
  %64 = trunc i64 %63 to i32
  store i32 %64, ptr %9, align 4, !tbaa !28
  call void @llvm.lifetime.start.p0(i64 4, ptr %10) #19
  %65 = load ptr, ptr %5, align 8, !tbaa !23
  %66 = getelementptr inbounds nuw %"struct.Luau::BytecodeBuilder::ConstantKey", ptr %65, i32 0, i32 1
  %67 = load i64, ptr %66, align 8, !tbaa !29
  %68 = lshr i64 %67, 32
  %69 = trunc i64 %68 to i32
  %70 = load ptr, ptr %5, align 8, !tbaa !23
  %71 = getelementptr inbounds nuw %"struct.Luau::BytecodeBuilder::ConstantKey", ptr %70, i32 0, i32 0
  %72 = load i32, ptr %71, align 8, !tbaa !25
  %73 = mul i32 %72, 1540483477
  %74 = xor i32 %69, %73
  store i32 %74, ptr %10, align 4, !tbaa !28
  %75 = load i32, ptr %10, align 4, !tbaa !28
  %76 = lshr i32 %75, 18
  %77 = load i32, ptr %9, align 4, !tbaa !28
  %78 = xor i32 %77, %76
  store i32 %78, ptr %9, align 4, !tbaa !28
  %79 = load i32, ptr %9, align 4, !tbaa !28
  %80 = mul i32 %79, 1540483477
  store i32 %80, ptr %9, align 4, !tbaa !28
  %81 = load i32, ptr %9, align 4, !tbaa !28
  %82 = lshr i32 %81, 22
  %83 = load i32, ptr %10, align 4, !tbaa !28
  %84 = xor i32 %83, %82
  store i32 %84, ptr %10, align 4, !tbaa !28
  %85 = load i32, ptr %10, align 4, !tbaa !28
  %86 = mul i32 %85, 1540483477
  store i32 %86, ptr %10, align 4, !tbaa !28
  %87 = load i32, ptr %10, align 4, !tbaa !28
  %88 = lshr i32 %87, 17
  %89 = load i32, ptr %9, align 4, !tbaa !28
  %90 = xor i32 %89, %88
  store i32 %90, ptr %9, align 4, !tbaa !28
  %91 = load i32, ptr %9, align 4, !tbaa !28
  %92 = mul i32 %91, 1540483477
  store i32 %92, ptr %9, align 4, !tbaa !28
  %93 = load i32, ptr %9, align 4, !tbaa !28
  %94 = lshr i32 %93, 19
  %95 = load i32, ptr %10, align 4, !tbaa !28
  %96 = xor i32 %95, %94
  store i32 %96, ptr %10, align 4, !tbaa !28
  %97 = load i32, ptr %10, align 4, !tbaa !28
  %98 = mul i32 %97, 1540483477
  store i32 %98, ptr %10, align 4, !tbaa !28
  %99 = load i32, ptr %10, align 4, !tbaa !28
  %100 = zext i32 %99 to i64
  store i64 %100, ptr %3, align 8
  call void @llvm.lifetime.end.p0(i64 4, ptr %10) #19
  call void @llvm.lifetime.end.p0(i64 4, ptr %9) #19
  call void @llvm.lifetime.end.p0(i64 4, ptr %8) #19
  br label %101

101:                                              ; preds = %60, %15
  %102 = load i64, ptr %3, align 8
  ret i64 %102
}