; Function Attrs: mustprogress nofree norecurse nosync nounwind willreturn memory(argmem: read) uwtable
define dso_local noundef range(i64 0, 4294967296) i64 @_ZNK4Luau15BytecodeBuilder15ConstantKeyHashclERKNS0_11ConstantKeyE(ptr noundef nonnull readnone align 1 captures(none) dereferenceable(1) %0, ptr noundef nonnull readonly align 8 captures(none) dereferenceable(24) %1) local_unnamed_addr #5 align 2 {
  %3 = load i32, ptr %1, align 8, !tbaa !15
  %4 = icmp eq i32 %3, 3
  %5 = getelementptr inbounds nuw i8, ptr %1, i64 8
  br i1 %4, label %6, label %22

6:                                                ; preds = %2
  %.sroa.0.0.copyload = load i32, ptr %5, align 8
  %.sroa.7.0..sroa_idx = getelementptr inbounds nuw i8, ptr %1, i64 12
  %.sroa.7.0.copyload = load i32, ptr %.sroa.7.0..sroa_idx, align 4
  %.sroa.11.0..sroa_idx = getelementptr inbounds nuw i8, ptr %1, i64 16
  %.sroa.11.0.copyload = load i32, ptr %.sroa.11.0..sroa_idx, align 8
  %.sroa.15.0..sroa_idx = getelementptr inbounds nuw i8, ptr %1, i64 20
  %.sroa.15.0.copyload = load i32, ptr %.sroa.15.0..sroa_idx, align 4
  %7 = lshr i32 %.sroa.0.0.copyload, 17
  %8 = xor i32 %7, %.sroa.0.0.copyload
  %9 = lshr i32 %.sroa.7.0.copyload, 17
  %10 = xor i32 %9, %.sroa.7.0.copyload
  %11 = lshr i32 %.sroa.11.0.copyload, 17
  %12 = xor i32 %11, %.sroa.11.0.copyload
  %13 = lshr i32 %.sroa.15.0.copyload, 17
  %14 = xor i32 %13, %.sroa.15.0.copyload
  %15 = mul i32 %8, 73856093
  %16 = mul i32 %10, 19349663
  %17 = xor i32 %16, %15
  %18 = mul i32 %12, 83492791
  %19 = xor i32 %17, %18
  %20 = mul i32 %14, 39916801
  %21 = xor i32 %19, %20
  br label %41

22:                                               ; preds = %2
  %23 = load i64, ptr %5, align 8, !tbaa !18
  %24 = trunc i64 %23 to i32
  %25 = lshr i64 %23, 32
  %26 = trunc nuw i64 %25 to i32
  %27 = mul i32 %3, 1540483477
  %28 = xor i32 %27, %26
  %29 = lshr i32 %28, 18
  %30 = xor i32 %29, %24
  %31 = mul i32 %30, 1540483477
  %32 = lshr i32 %31, 22
  %33 = xor i32 %32, %28
  %34 = mul i32 %33, 1540483477
  %35 = lshr i32 %34, 17
  %36 = xor i32 %35, %31
  %37 = mul i32 %36, 1540483477
  %38 = lshr i32 %37, 19
  %39 = xor i32 %38, %34
  %40 = mul i32 %39, 1540483477
  br label %41

41:                                               ; preds = %22, %6
  %.0.in = phi i32 [ %21, %6 ], [ %40, %22 ]
  %.0 = zext i32 %.0.in to i64
  ret i64 %.0
}